; Function Attrs: mustprogress nounwind uwtable
define hidden void @_ZN7CFGLoop16update_succ_freqEP5Blockd(ptr noundef nonnull align 8 dereferenceable(104) %0, ptr noundef %1, double noundef %2) local_unnamed_addr #0 align 2 {
  %4 = getelementptr inbounds i8, ptr %1, i64 96
  %5 = load ptr, ptr %4, align 8
  %6 = icmp eq ptr %5, %0
  br i1 %6, label %7, label %16

7:                                                ; preds = %3
  %8 = getelementptr inbounds i8, ptr %0, i64 56
  %9 = load ptr, ptr %8, align 8
  %10 = load ptr, ptr %9, align 8
  %11 = icmp eq ptr %10, %1
  br i1 %11, label %54, label %12

12:                                               ; preds = %7
  %13 = getelementptr inbounds i8, ptr %1, i64 8
  %14 = load double, ptr %13, align 8
  %15 = fadd double %14, %2
  store double %15, ptr %13, align 8
  br label %54

16:                                               ; preds = %3
  %17 = getelementptr inbounds i8, ptr %0, i64 20
  %18 = load i32, ptr %17, align 4
  %19 = getelementptr inbounds i8, ptr %5, i64 20
  %20 = load i32, ptr %19, align 4
  %21 = icmp eq i32 %18, %20
  br i1 %21, label %_ZN7CFGLoop12in_loop_nestEP5Block.exit.thread, label %.preheader.i

.preheader.i:                                     ; preds = %16
  %22 = icmp sgt i32 %20, %18
  br i1 %22, label %.lr.ph.i, label %_ZN7CFGLoop12in_loop_nestEP5Block.exit

.lr.ph.i:                                         ; preds = %.preheader.i, %.lr.ph.i
  %.01013.i = phi ptr [ %24, %.lr.ph.i ], [ %5, %.preheader.i ]
  %23 = getelementptr inbounds i8, ptr %.01013.i, i64 24
  %24 = load ptr, ptr %23, align 8
  %25 = getelementptr inbounds i8, ptr %24, i64 20
  %26 = load i32, ptr %25, align 4
  %27 = icmp sgt i32 %26, %18
  br i1 %27, label %.lr.ph.i, label %_ZN7CFGLoop12in_loop_nestEP5Block.exit, !llvm.loop !70

_ZN7CFGLoop12in_loop_nestEP5Block.exit:           ; preds = %.lr.ph.i, %.preheader.i
  %.010.lcssa.i = phi ptr [ %5, %.preheader.i ], [ %24, %.lr.ph.i ]
  %28 = icmp eq ptr %.010.lcssa.i, %0
  br i1 %28, label %_ZN7CFGLoop12in_loop_nestEP5Block.exit.thread, label %29

29:                                               ; preds = %_ZN7CFGLoop12in_loop_nestEP5Block.exit
  %30 = getelementptr inbounds i8, ptr %0, i64 72
  %31 = load i32, ptr %30, align 8
  %32 = getelementptr inbounds i8, ptr %0, i64 76
  %33 = load i32, ptr %32, align 4
  %34 = icmp eq i32 %31, %33
  br i1 %34, label %35, label %_ZN26GrowableArrayWithAllocatorI13BlockProbPair13GrowableArrayIS0_EE6appendERKS0_.exit

35:                                               ; preds = %29
  %36 = add nsw i32 %31, 1
  %37 = icmp sgt i32 %31, -1
  %38 = xor i32 %31, -2147483648
  %39 = and i32 %38, %36
  %40 = icmp eq i32 %39, 0
  %41 = and i1 %37, %40
  %42 = tail call range(i32 0, 33) i32 @llvm.ctlz.i32(i32 %36, i1 true)
  %43 = sub nuw nsw i32 32, %42
  %44 = shl nuw i32 1, %43
  %.0.i.i.i.i = select i1 %41, i32 %36, i32 %44
  tail call void @_ZN26GrowableArrayWithAllocatorI13BlockProbPair13GrowableArrayIS0_EE9expand_toEi(ptr noundef nonnull align 8 dereferenceable(16) %30, i32 noundef %.0.i.i.i.i)
  %.pre.i = load i32, ptr %30, align 8
  br label %_ZN26GrowableArrayWithAllocatorI13BlockProbPair13GrowableArrayIS0_EE6appendERKS0_.exit

_ZN26GrowableArrayWithAllocatorI13BlockProbPair13GrowableArrayIS0_EE6appendERKS0_.exit: ; preds = %29, %35
  %45 = phi i32 [ %.pre.i, %35 ], [ %31, %29 ]
  %46 = add nsw i32 %45, 1
  store i32 %46, ptr %30, align 8
  %47 = getelementptr inbounds i8, ptr %0, i64 80
  %48 = load ptr, ptr %47, align 8
  %49 = sext i32 %45 to i64
  %50 = getelementptr inbounds %class.BlockProbPair, ptr %48, i64 %49
  store ptr %1, ptr %50, align 8
  %.sroa.2.0..sroa_idx = getelementptr inbounds i8, ptr %50, i64 8
  store double %2, ptr %.sroa.2.0..sroa_idx, align 8
  br label %54

_ZN7CFGLoop12in_loop_nestEP5Block.exit.thread:    ; preds = %16, %_ZN7CFGLoop12in_loop_nestEP5Block.exit
  %51 = getelementptr inbounds i8, ptr %5, i64 8
  %52 = load double, ptr %51, align 8
  %53 = fadd double %52, %2
  store double %53, ptr %51, align 8
  br label %54

54:                                               ; preds = %_ZN26GrowableArrayWithAllocatorI13BlockProbPair13GrowableArrayIS0_EE6appendERKS0_.exit, %_ZN7CFGLoop12in_loop_nestEP5Block.exit.thread, %12, %7
  ret void
}